; Function Attrs: mustprogress nofree norecurse nosync nounwind willreturn memory(argmem: write) uwtable
define hidden void @_ZN2cv25VariationalRefinementImpl37ComputeSmoothnessTermVertPass_ParBodyC2ERS0_iiRNS0_14RedBlackBufferES4_b(ptr noundef nonnull writeonly align 8 captures(none) dereferenceable(49) initializes((0, 28), (32, 49)) %0, ptr noundef nonnull align 8 dereferenceable(5160) %1, i32 noundef %2, i32 noundef %3, ptr noundef nonnull align 8 dereferenceable(208) %4, ptr noundef nonnull align 8 dereferenceable(208) %5, i1 noundef zeroext %6) unnamed_addr #7 align 2 {
  %8 = zext i1 %6 to i8
  store ptr getelementptr inbounds nuw inrange(-16, 24) (i8, ptr @_ZTVN2cv25VariationalRefinementImpl37ComputeSmoothnessTermVertPass_ParBodyE, i64 16), ptr %0, align 8, !tbaa !3
  %9 = getelementptr inbounds nuw i8, ptr %0, i64 8
  store ptr %1, ptr %9, align 8, !tbaa !124
  %10 = getelementptr inbounds nuw i8, ptr %0, i64 16
  store i32 %2, ptr %10, align 8, !tbaa !126
  %11 = getelementptr inbounds nuw i8, ptr %0, i64 32
  store ptr %4, ptr %11, align 8, !tbaa !127
  %12 = getelementptr inbounds nuw i8, ptr %0, i64 40
  store ptr %5, ptr %12, align 8, !tbaa !128
  %13 = getelementptr inbounds nuw i8, ptr %0, i64 48
  store i8 %8, ptr %13, align 8, !tbaa !129
  %14 = add nsw i32 %3, -1
  %15 = getelementptr inbounds nuw i8, ptr %0, i64 24
  store i32 %14, ptr %15, align 8, !tbaa !130
  %16 = sitofp i32 %14 to double
  %17 = sitofp i32 %2 to double
  %18 = fdiv double %16, %17
  %19 = tail call double @llvm.ceil.f64(double %18)
  %20 = fptosi double %19 to i32
  %21 = getelementptr inbounds nuw i8, ptr %0, i64 20
  store i32 %20, ptr %21, align 4, !tbaa !131
  ret void
}